; ModuleID = 'source-C-CXX/30/1150.c'
source_filename = "source-C-CXX/30/1150.c"
target datalayout = "e-m:e-p270:32:32-p271:32:32-p272:64:64-i64:64-f80:128-n8:16:32:64-S128"
target triple = "x86_64-pc-linux-gnu"

%struct.student = type { [100 x i8], %struct.student* }

@m = dso_local global [4 x i8] c"end\00", align 1
@n = dso_local local_unnamed_addr global i32 0, align 4

; Function Attrs: nounwind sspstrong uwtable
define dso_local %struct.student* @creat() local_unnamed_addr #0 {
  store i32 0, i32* @n, align 4, !tbaa !5
  %1 = tail call noalias align 16 dereferenceable_or_null(112) i8* @malloc(i64 112) #6
  %2 = bitcast i8* %1 to %struct.student*
  %3 = getelementptr inbounds %struct.student, %struct.student* %2, i64 0, i32 0, i64 0
  %4 = tail call i32 (i8*, ...) bitcast (i32 (...)* @gets to i32 (i8*, ...)*)(i8* %3) #6
  %5 = tail call i32 @strcmp(i8* noundef nonnull dereferenceable(1) %3, i8* noundef nonnull dereferenceable(1) getelementptr inbounds ([4 x i8], [4 x i8]* @m, i64 0, i64 0)) #7
  %6 = icmp eq i32 %5, 0
  br i1 %6, label %24, label %7

7:                                                ; preds = %0, %16
  %8 = phi %struct.student* [ %9, %16 ], [ %2, %0 ]
  %9 = phi %struct.student* [ %19, %16 ], [ %2, %0 ]
  %10 = phi %struct.student* [ %17, %16 ], [ null, %0 ]
  %11 = load i32, i32* @n, align 4, !tbaa !5
  %12 = add nsw i32 %11, 1
  store i32 %12, i32* @n, align 4, !tbaa !5
  %13 = icmp eq i32 %11, 0
  br i1 %13, label %16, label %14

14:                                               ; preds = %7
  %15 = getelementptr inbounds %struct.student, %struct.student* %8, i64 0, i32 1
  store %struct.student* %9, %struct.student** %15, align 8, !tbaa !9
  br label %16

16:                                               ; preds = %7, %14
  %17 = phi %struct.student* [ %10, %14 ], [ %9, %7 ]
  %18 = tail call noalias align 16 dereferenceable_or_null(112) i8* @malloc(i64 112) #6
  %19 = bitcast i8* %18 to %struct.student*
  %20 = getelementptr inbounds %struct.student, %struct.student* %19, i64 0, i32 0, i64 0
  %21 = tail call i32 (i8*, ...) bitcast (i32 (...)* @gets to i32 (i8*, ...)*)(i8* %20) #6
  %22 = tail call i32 @strcmp(i8* noundef nonnull dereferenceable(1) %20, i8* noundef nonnull dereferenceable(1) getelementptr inbounds ([4 x i8], [4 x i8]* @m, i64 0, i64 0)) #7
  %23 = icmp eq i32 %22, 0
  br i1 %23, label %24, label %7, !llvm.loop !12

24:                                               ; preds = %16, %0
  %25 = phi %struct.student* [ null, %0 ], [ %17, %16 ]
  %26 = phi %struct.student* [ %2, %0 ], [ %9, %16 ]
  %27 = getelementptr inbounds %struct.student, %struct.student* %26, i64 0, i32 1
  store %struct.student* null, %struct.student** %27, align 8, !tbaa !9
  ret %struct.student* %25
}

; Function Attrs: inaccessiblememonly mustprogress nofree nounwind willreturn
declare noalias noundef align 16 i8* @malloc(i64 noundef) local_unnamed_addr #1

declare i32 @gets(...) local_unnamed_addr #2

; Function Attrs: argmemonly mustprogress nofree nounwind readonly willreturn
declare i32 @strcmp(i8* nocapture, i8* nocapture) local_unnamed_addr #3

; Function Attrs: nofree nounwind sspstrong uwtable
define dso_local void @print(%struct.student* readonly %0) local_unnamed_addr #4 {
  br label %2

2:                                                ; preds = %2, %1
  %3 = phi %struct.student* [ %0, %1 ], [ %5, %2 ]
  %4 = getelementptr inbounds %struct.student, %struct.student* %3, i64 0, i32 1
  %5 = load %struct.student*, %struct.student** %4, align 8, !tbaa !9
  %6 = icmp eq %struct.student* %5, null
  br i1 %6, label %7, label %2, !llvm.loop !14

7:                                                ; preds = %2
  %8 = getelementptr inbounds %struct.student, %struct.student* %3, i64 0, i32 0, i64 0
  %9 = tail call i32 @puts(i8* nonnull dereferenceable(1) %8)
  br label %10

10:                                               ; preds = %17, %7
  %11 = phi %struct.student* [ %3, %7 ], [ %13, %17 ]
  br label %12

12:                                               ; preds = %12, %10
  %13 = phi %struct.student* [ %0, %10 ], [ %15, %12 ]
  %14 = getelementptr inbounds %struct.student, %struct.student* %13, i64 0, i32 1
  %15 = load %struct.student*, %struct.student** %14, align 8, !tbaa !9
  %16 = icmp eq %struct.student* %15, %11
  br i1 %16, label %17, label %12, !llvm.loop !15

17:                                               ; preds = %12
  %18 = getelementptr inbounds %struct.student, %struct.student* %13, i64 0, i32 0, i64 0
  %19 = tail call i32 @puts(i8* nonnull dereferenceable(1) %18)
  %20 = icmp eq %struct.student* %13, %0
  br i1 %20, label %21, label %10

21:                                               ; preds = %17
  ret void
}

; Function Attrs: nounwind sspstrong uwtable
define dso_local i32 @main() local_unnamed_addr #0 {
  store i32 0, i32* @n, align 4, !tbaa !5
  %1 = tail call noalias align 16 dereferenceable_or_null(112) i8* @malloc(i64 112) #6
  %2 = bitcast i8* %1 to %struct.student*
  %3 = getelementptr inbounds %struct.student, %struct.student* %2, i64 0, i32 0, i64 0
  %4 = tail call i32 (i8*, ...) bitcast (i32 (...)* @gets to i32 (i8*, ...)*)(i8* %3) #6
  %5 = tail call i32 @strcmp(i8* noundef nonnull dereferenceable(1) %3, i8* noundef nonnull dereferenceable(1) getelementptr inbounds ([4 x i8], [4 x i8]* @m, i64 0, i64 0)) #7
  %6 = icmp eq i32 %5, 0
  br i1 %6, label %24, label %7

7:                                                ; preds = %0, %16
  %8 = phi %struct.student* [ %9, %16 ], [ %2, %0 ]
  %9 = phi %struct.student* [ %19, %16 ], [ %2, %0 ]
  %10 = phi %struct.student* [ %17, %16 ], [ null, %0 ]
  %11 = load i32, i32* @n, align 4, !tbaa !5
  %12 = add nsw i32 %11, 1
  store i32 %12, i32* @n, align 4, !tbaa !5
  %13 = icmp eq i32 %11, 0
  br i1 %13, label %16, label %14

14:                                               ; preds = %7
  %15 = getelementptr inbounds %struct.student, %struct.student* %8, i64 0, i32 1
  store %struct.student* %9, %struct.student** %15, align 8, !tbaa !9
  br label %16

16:                                               ; preds = %14, %7
  %17 = phi %struct.student* [ %10, %14 ], [ %9, %7 ]
  %18 = tail call noalias align 16 dereferenceable_or_null(112) i8* @malloc(i64 112) #6
  %19 = bitcast i8* %18 to %struct.student*
  %20 = getelementptr inbounds %struct.student, %struct.student* %19, i64 0, i32 0, i64 0
  %21 = tail call i32 (i8*, ...) bitcast (i32 (...)* @gets to i32 (i8*, ...)*)(i8* %20) #6
  %22 = tail call i32 @strcmp(i8* noundef nonnull dereferenceable(1) %20, i8* noundef nonnull dereferenceable(1) getelementptr inbounds ([4 x i8], [4 x i8]* @m, i64 0, i64 0)) #7
  %23 = icmp eq i32 %22, 0
  br i1 %23, label %24, label %7, !llvm.loop !12

24:                                               ; preds = %16, %0
  %25 = phi %struct.student* [ null, %0 ], [ %17, %16 ]
  %26 = phi %struct.student* [ %2, %0 ], [ %9, %16 ]
  %27 = getelementptr inbounds %struct.student, %struct.student* %26, i64 0, i32 1
  store %struct.student* null, %struct.student** %27, align 8, !tbaa !9
  br label %28

28:                                               ; preds = %28, %24
  %29 = phi %struct.student* [ %25, %24 ], [ %31, %28 ]
  %30 = getelementptr inbounds %struct.student, %struct.student* %29, i64 0, i32 1
  %31 = load %struct.student*, %struct.student** %30, align 8, !tbaa !9
  %32 = icmp eq %struct.student* %31, null
  br i1 %32, label %33, label %28, !llvm.loop !14

33:                                               ; preds = %28
  %34 = getelementptr inbounds %struct.student, %struct.student* %29, i64 0, i32 0, i64 0
  %35 = tail call i32 @puts(i8* nonnull dereferenceable(1) %34) #6
  br label %36

36:                                               ; preds = %43, %33
  %37 = phi %struct.student* [ %29, %33 ], [ %39, %43 ]
  br label %38

38:                                               ; preds = %38, %36
  %39 = phi %struct.student* [ %25, %36 ], [ %41, %38 ]
  %40 = getelementptr inbounds %struct.student, %struct.student* %39, i64 0, i32 1
  %41 = load %struct.student*, %struct.student** %40, align 8, !tbaa !9
  %42 = icmp eq %struct.student* %41, %37
  br i1 %42, label %43, label %38, !llvm.loop !15

43:                                               ; preds = %38
  %44 = getelementptr inbounds %struct.student, %struct.student* %39, i64 0, i32 0, i64 0
  %45 = tail call i32 @puts(i8* nonnull dereferenceable(1) %44) #6
  %46 = icmp eq %struct.student* %39, %25
  br i1 %46, label %47, label %36

47:                                               ; preds = %43
  ret i32 0
}

; Function Attrs: nofree nounwind
declare noundef i32 @puts(i8* nocapture noundef readonly) local_unnamed_addr #5


!llvm.module.flags = !{!0, !1, !2, !3}
!llvm.ident = !{!4}

!0 = !{i32 1, !"wchar_size", i32 4}
!1 = !{i32 7, !"PIC Level", i32 2}
!2 = !{i32 7, !"PIE Level", i32 2}
!3 = !{i32 7, !"uwtable", i32 1}
!4 = !{!"clang version 13.0.0"}
!5 = !{!6, !6, i64 0}
!6 = !{!"int", !7, i64 0}
!7 = !{!"omnipotent char", !8, i64 0}
!8 = !{!"Simple C/C++ TBAA"}
!9 = !{!10, !11, i64 104}
!10 = !{!"student", !7, i64 0, !11, i64 104}
!11 = !{!"any pointer", !7, i64 0}
!12 = distinct !{!12, !13}
!13 = !{!"llvm.loop.mustprogress"}
!14 = distinct !{!14, !13}
!15 = distinct !{!15, !13}
